target datalayout = "e-m:e-p270:32:32-p271:32:32-p272:64:64-i64:64-i128:128-f80:128-n8:16:32:64-S128"
target triple = "x86_64-pc-linux-gnu"

@.str.4 = private unnamed_addr constant [4 x i8] c"YES\00", align 1
@.str.5 = private unnamed_addr constant [3 x i8] c"NO\00", align 1
@.str.6 = private unnamed_addr constant [15 x i8] c"LANGUAGE=\22%s\22,\00", align 1
@.str.8 = private unnamed_addr constant [10 x i8] c"URI=\22%s\22\0A\00", align 1
@.str.9 = private unnamed_addr constant [42 x i8] c"#EXT-X-MEDIA:TYPE=SUBTITLES,GROUP-ID=\22%s\22\00", align 1
@.str.10 = private unnamed_addr constant [12 x i8] c",NAME=\22%s\22,\00", align 1
@.str.11 = private unnamed_addr constant [21 x i8] c",NAME=\22subtitle_%d\22,\00", align 1
@.str.12 = private unnamed_addr constant [12 x i8] c"DEFAULT=%s,\00", align 1

; Function Attrs: nounwind uwtable
define void @ff_hls_write_subtitle_rendition(ptr noundef %0, ptr noundef %1, ptr noundef %2, ptr noundef %3, ptr noundef %4, i32 noundef %5, i32 noundef %6) #0 {
  %8 = alloca ptr, align 8
  %9 = alloca ptr, align 8
  %10 = alloca ptr, align 8
  %11 = alloca ptr, align 8
  %12 = alloca ptr, align 8
  %13 = alloca i32, align 4
  %14 = alloca i32, align 4
  store ptr %0, ptr %8, align 8, !tbaa !4
  store ptr %1, ptr %9, align 8, !tbaa !11
  store ptr %2, ptr %10, align 8, !tbaa !11
  store ptr %3, ptr %11, align 8, !tbaa !11
  store ptr %4, ptr %12, align 8, !tbaa !11
  store i32 %5, ptr %13, align 4, !tbaa !9
  store i32 %6, ptr %14, align 4, !tbaa !9
  %15 = load ptr, ptr %8, align 8, !tbaa !4
  %16 = icmp ne ptr %15, null
  br i1 %16, label %17, label %20

17:                                               ; preds = %7
  %18 = load ptr, ptr %10, align 8, !tbaa !11
  %19 = icmp ne ptr %18, null
  br i1 %19, label %21, label %20

20:                                               ; preds = %17, %7
  br label %51

21:                                               ; preds = %17
  %22 = load ptr, ptr %8, align 8, !tbaa !4
  %23 = load ptr, ptr %9, align 8, !tbaa !11
  %24 = call i32 (ptr, ptr, ...) @avio_printf(ptr noundef %22, ptr noundef @.str.9, ptr noundef %23)
  %25 = load ptr, ptr %12, align 8, !tbaa !11
  %26 = icmp ne ptr %25, null
  br i1 %26, label %27, label %31

27:                                               ; preds = %21
  %28 = load ptr, ptr %8, align 8, !tbaa !4
  %29 = load ptr, ptr %12, align 8, !tbaa !11
  %30 = call i32 (ptr, ptr, ...) @avio_printf(ptr noundef %28, ptr noundef @.str.10, ptr noundef %29)
  br label %35

31:                                               ; preds = %21
  %32 = load ptr, ptr %8, align 8, !tbaa !4
  %33 = load i32, ptr %13, align 4, !tbaa !9
  %34 = call i32 (ptr, ptr, ...) @avio_printf(ptr noundef %32, ptr noundef @.str.11, i32 noundef %33)
  br label %35

35:                                               ; preds = %31, %27
  %36 = load ptr, ptr %8, align 8, !tbaa !4
  %37 = load i32, ptr %14, align 4, !tbaa !9
  %38 = icmp ne i32 %37, 0
  %39 = select i1 %38, ptr @.str.4, ptr @.str.5
  %40 = call i32 (ptr, ptr, ...) @avio_printf(ptr noundef %36, ptr noundef @.str.12, ptr noundef %39)
  %41 = load ptr, ptr %11, align 8, !tbaa !11
  %42 = icmp ne ptr %41, null
  br i1 %42, label %43, label %47

43:                                               ; preds = %35
  %44 = load ptr, ptr %8, align 8, !tbaa !4
  %45 = load ptr, ptr %11, align 8, !tbaa !11
  %46 = call i32 (ptr, ptr, ...) @avio_printf(ptr noundef %44, ptr noundef @.str.6, ptr noundef %45)
  br label %47

47:                                               ; preds = %43, %35
  %48 = load ptr, ptr %8, align 8, !tbaa !4
  %49 = load ptr, ptr %10, align 8, !tbaa !11
  %50 = call i32 (ptr, ptr, ...) @avio_printf(ptr noundef %48, ptr noundef @.str.8, ptr noundef %49)
  br label %51

51:                                               ; preds = %47, %20
  ret void
}