; Function Attrs: nounwind uwtable
define void @ff_hls_write_subtitle_rendition(ptr noundef %0, ptr noundef %1, ptr noundef %2, ptr noundef %3, ptr noundef %4, i32 noundef %5, i32 noundef %6) local_unnamed_addr #0 {
  %8 = icmp ne ptr %0, null
  %9 = icmp ne ptr %2, null
  %or.cond = and i1 %8, %9
  br i1 %or.cond, label %10, label %23

10:                                               ; preds = %7
  %11 = tail call i32 (ptr, ptr, ...) @avio_printf(ptr noundef nonnull %0, ptr noundef nonnull @.str.9, ptr noundef %1) #8
  %.not = icmp eq ptr %4, null
  br i1 %.not, label %14, label %12

12:                                               ; preds = %10
  %13 = tail call i32 (ptr, ptr, ...) @avio_printf(ptr noundef nonnull %0, ptr noundef nonnull @.str.10, ptr noundef nonnull %4) #8
  br label %16

14:                                               ; preds = %10
  %15 = tail call i32 (ptr, ptr, ...) @avio_printf(ptr noundef nonnull %0, ptr noundef nonnull @.str.11, i32 noundef %5) #8
  br label %16

16:                                               ; preds = %14, %12
  %.not19 = icmp eq i32 %6, 0
  %17 = select i1 %.not19, ptr @.str.5, ptr @.str.4
  %18 = tail call i32 (ptr, ptr, ...) @avio_printf(ptr noundef nonnull %0, ptr noundef nonnull @.str.12, ptr noundef nonnull %17) #8
  %.not20 = icmp eq ptr %3, null
  br i1 %.not20, label %21, label %19

19:                                               ; preds = %16
  %20 = tail call i32 (ptr, ptr, ...) @avio_printf(ptr noundef nonnull %0, ptr noundef nonnull @.str.6, ptr noundef nonnull %3) #8
  br label %21

21:                                               ; preds = %19, %16
  %22 = tail call i32 (ptr, ptr, ...) @avio_printf(ptr noundef nonnull %0, ptr noundef nonnull @.str.8, ptr noundef nonnull %2) #8
  br label %23

23:                                               ; preds = %7, %21
  ret void
}